; ModuleID = 'bench/hwloc/original/misc.ll'
source_filename = "bench/hwloc/original/misc.ll"
target datalayout = "e-m:e-p270:32:32-p271:32:32-p272:64:64-i64:64-i128:128-f80:128-n8:16:32:64-S128"
target triple = "x86_64-pc-linux-gnu"

%struct.utsname = type { [65 x i8], [65 x i8], [65 x i8], [65 x i8], [65 x i8], [65 x i8] }
%struct.hwloc_info_s = type { ptr, ptr }

@.str = private unnamed_addr constant [7 x i8] c"OSName\00", align 1
@.str.1 = private unnamed_addr constant [10 x i8] c"OSRelease\00", align 1
@.str.2 = private unnamed_addr constant [10 x i8] c"OSVersion\00", align 1
@.str.3 = private unnamed_addr constant [9 x i8] c"HostName\00", align 1
@.str.4 = private unnamed_addr constant [13 x i8] c"Architecture\00", align 1
@program_invocation_name = external local_unnamed_addr global ptr, align 8

; Function Attrs: nounwind uwtable
define hidden void @hwloc_add_uname_info(ptr noundef %0, ptr noundef %1) local_unnamed_addr #0 {
  %3 = alloca %struct.utsname, align 1
  call void @llvm.lifetime.start.p0(i64 390, ptr nonnull %3) #7
  %4 = getelementptr inbounds nuw i8, ptr %0, i64 688
  %5 = getelementptr inbounds nuw i8, ptr %0, i64 696
  %6 = load i32, ptr %5, align 8, !tbaa !3
  %.not.i = icmp eq i32 %6, 0
  br i1 %.not.i, label %hwloc_get_info_by_name.exit.thread, label %.lr.ph.i

.lr.ph.i:                                         ; preds = %2
  %7 = load ptr, ptr %4, align 8, !tbaa !10
  %wide.trip.count.i = zext i32 %6 to i64
  br label %9

8:                                                ; preds = %9
  %indvars.iv.next.i = add nuw nsw i64 %indvars.iv.i, 1
  %exitcond.not.i = icmp eq i64 %indvars.iv.next.i, %wide.trip.count.i
  br i1 %exitcond.not.i, label %hwloc_get_info_by_name.exit.thread, label %9, !llvm.loop !11

9:                                                ; preds = %8, %.lr.ph.i
  %indvars.iv.i = phi i64 [ 0, %.lr.ph.i ], [ %indvars.iv.next.i, %8 ]
  %10 = getelementptr inbounds nuw %struct.hwloc_info_s, ptr %7, i64 %indvars.iv.i
  %11 = load ptr, ptr %10, align 8, !tbaa !13
  %12 = tail call i32 @strcmp(ptr noundef nonnull dereferenceable(1) %11, ptr noundef nonnull dereferenceable(7) @.str) #8
  %.not.not.i = icmp eq i32 %12, 0
  br i1 %.not.not.i, label %hwloc_get_info_by_name.exit, label %8

hwloc_get_info_by_name.exit.thread:               ; preds = %8, %2
  %.0.sroa.gep2556 = getelementptr inbounds nuw i8, ptr %3, i64 130
  %.0.sroa.gep3158 = getelementptr inbounds nuw i8, ptr %3, i64 195
  %.0.sroa.gep3760 = getelementptr inbounds nuw i8, ptr %3, i64 65
  %.0.sroa.gep4362 = getelementptr inbounds nuw i8, ptr %3, i64 260
  br label %15

hwloc_get_info_by_name.exit:                      ; preds = %9
  %13 = getelementptr inbounds nuw i8, ptr %10, i64 8
  %14 = load ptr, ptr %13, align 8, !tbaa !16
  %.not = icmp eq ptr %14, null
  %.0.sroa.gep25 = getelementptr inbounds nuw i8, ptr %3, i64 130
  %.0.sroa.gep31 = getelementptr inbounds nuw i8, ptr %3, i64 195
  %.0.sroa.gep37 = getelementptr inbounds nuw i8, ptr %3, i64 65
  %.0.sroa.gep43 = getelementptr inbounds nuw i8, ptr %3, i64 260
  br i1 %.not, label %15, label %39

15:                                               ; preds = %hwloc_get_info_by_name.exit.thread, %hwloc_get_info_by_name.exit
  %.0.sroa.gep4370 = phi ptr [ %.0.sroa.gep4362, %hwloc_get_info_by_name.exit.thread ], [ %.0.sroa.gep43, %hwloc_get_info_by_name.exit ]
  %.0.sroa.gep3768 = phi ptr [ %.0.sroa.gep3760, %hwloc_get_info_by_name.exit.thread ], [ %.0.sroa.gep37, %hwloc_get_info_by_name.exit ]
  %.0.sroa.gep3166 = phi ptr [ %.0.sroa.gep3158, %hwloc_get_info_by_name.exit.thread ], [ %.0.sroa.gep31, %hwloc_get_info_by_name.exit ]
  %.0.sroa.gep2564 = phi ptr [ %.0.sroa.gep2556, %hwloc_get_info_by_name.exit.thread ], [ %.0.sroa.gep25, %hwloc_get_info_by_name.exit ]
  %.0.sroa.gep2463 = getelementptr inbounds nuw i8, ptr %1, i64 130
  %.0.sroa.gep3065 = getelementptr inbounds nuw i8, ptr %1, i64 195
  %.0.sroa.gep3667 = getelementptr inbounds nuw i8, ptr %1, i64 65
  %.0.sroa.gep4269 = getelementptr inbounds nuw i8, ptr %1, i64 260
  %.not47 = icmp eq ptr %1, null
  br i1 %.not47, label %16, label %19

16:                                               ; preds = %15
  %17 = call i32 @uname(ptr noundef nonnull %3) #7
  %18 = icmp slt i32 %17, 0
  br i1 %18, label %39, label %19

19:                                               ; preds = %15, %16
  %.0.sroa.phi20 = phi ptr [ %3, %16 ], [ %1, %15 ]
  %.0.sroa.phi26 = phi ptr [ %.0.sroa.gep2564, %16 ], [ %.0.sroa.gep2463, %15 ]
  %.0.sroa.phi32 = phi ptr [ %.0.sroa.gep3166, %16 ], [ %.0.sroa.gep3065, %15 ]
  %.0.sroa.phi38 = phi ptr [ %.0.sroa.gep3768, %16 ], [ %.0.sroa.gep3667, %15 ]
  %.0.sroa.phi44 = phi ptr [ %.0.sroa.gep4370, %16 ], [ %.0.sroa.gep4269, %15 ]
  %20 = load i8, ptr %.0.sroa.phi20, align 1, !tbaa !17
  %.not48 = icmp eq i8 %20, 0
  br i1 %.not48, label %23, label %21

21:                                               ; preds = %19
  %22 = call i32 @hwloc__add_info(ptr noundef nonnull %4, ptr noundef nonnull @.str, ptr noundef nonnull %.0.sroa.phi20) #7
  br label %23

23:                                               ; preds = %21, %19
  %24 = load i8, ptr %.0.sroa.phi26, align 1, !tbaa !17
  %.not49 = icmp eq i8 %24, 0
  br i1 %.not49, label %27, label %25

25:                                               ; preds = %23
  %26 = call i32 @hwloc__add_info(ptr noundef nonnull %4, ptr noundef nonnull @.str.1, ptr noundef nonnull %.0.sroa.phi26) #7
  br label %27

27:                                               ; preds = %25, %23
  %28 = load i8, ptr %.0.sroa.phi32, align 1, !tbaa !17
  %.not50 = icmp eq i8 %28, 0
  br i1 %.not50, label %31, label %29

29:                                               ; preds = %27
  %30 = call i32 @hwloc__add_info(ptr noundef nonnull %4, ptr noundef nonnull @.str.2, ptr noundef nonnull %.0.sroa.phi32) #7
  br label %31

31:                                               ; preds = %29, %27
  %32 = load i8, ptr %.0.sroa.phi38, align 1, !tbaa !17
  %.not51 = icmp eq i8 %32, 0
  br i1 %.not51, label %35, label %33

33:                                               ; preds = %31
  %34 = call i32 @hwloc__add_info(ptr noundef nonnull %4, ptr noundef nonnull @.str.3, ptr noundef nonnull %.0.sroa.phi38) #7
  br label %35

35:                                               ; preds = %33, %31
  %36 = load i8, ptr %.0.sroa.phi44, align 1, !tbaa !17
  %.not52 = icmp eq i8 %36, 0
  br i1 %.not52, label %39, label %37

37:                                               ; preds = %35
  %38 = call i32 @hwloc__add_info(ptr noundef nonnull %4, ptr noundef nonnull @.str.4, ptr noundef nonnull %.0.sroa.phi44) #7
  br label %39

39:                                               ; preds = %35, %37, %16, %hwloc_get_info_by_name.exit
  call void @llvm.lifetime.end.p0(i64 390, ptr nonnull %3) #7
  ret void
}

; Function Attrs: mustprogress nocallback nofree nosync nounwind willreturn memory(argmem: readwrite)
declare void @llvm.lifetime.start.p0(i64 immarg, ptr captures(none)) #1

; Function Attrs: nofree nounwind
declare noundef i32 @uname(ptr noundef captures(none)) local_unnamed_addr #2

declare i32 @hwloc__add_info(ptr noundef, ptr noundef, ptr noundef) local_unnamed_addr #3

; Function Attrs: mustprogress nocallback nofree nosync nounwind willreturn memory(argmem: readwrite)
declare void @llvm.lifetime.end.p0(i64 immarg, ptr captures(none)) #1

; Function Attrs: mustprogress nofree nounwind willreturn uwtable
define hidden noalias ptr @hwloc_progname(ptr noundef readnone captures(none) %0) local_unnamed_addr #4 {
  %2 = load ptr, ptr @program_invocation_name, align 8, !tbaa !18
  %.not = icmp eq ptr %2, null
  br i1 %.not, label %7, label %3

3:                                                ; preds = %1
  %4 = tail call ptr @strrchr(ptr noundef nonnull dereferenceable(1) %2, i32 noundef 47) #8
  %.not10 = icmp eq ptr %4, null
  %5 = getelementptr inbounds nuw i8, ptr %4, i64 1
  %.0 = select i1 %.not10, ptr %2, ptr %5
  %6 = tail call noalias ptr @strdup(ptr noundef nonnull %.0) #7
  br label %7

7:                                                ; preds = %1, %3
  %.07 = phi ptr [ %6, %3 ], [ null, %1 ]
  ret ptr %.07
}

; Function Attrs: mustprogress nofree nounwind willreturn memory(argmem: read)
declare ptr @strrchr(ptr noundef, i32 noundef) local_unnamed_addr #5

; Function Attrs: mustprogress nofree nounwind willreturn memory(argmem: readwrite, inaccessiblemem: readwrite)
declare noalias ptr @strdup(ptr noundef readonly captures(none)) local_unnamed_addr #6

; Function Attrs: mustprogress nofree nounwind willreturn memory(argmem: read)
declare i32 @strcmp(ptr noundef captures(none), ptr noundef captures(none)) local_unnamed_addr #5


!llvm.module.flags = !{!0, !1, !2}

!0 = !{i32 1, !"wchar_size", i32 4}
!1 = !{i32 8, !"PIC Level", i32 2}
!2 = !{i32 7, !"uwtable", i32 2}
!3 = !{!4, !9, i64 8}
!4 = !{!"hwloc_infos_s", !5, i64 0, !9, i64 8, !9, i64 12}
!5 = !{!"p1 _ZTS12hwloc_info_s", !6, i64 0}
!6 = !{!"any pointer", !7, i64 0}
!7 = !{!"omnipotent char", !8, i64 0}
!8 = !{!"Simple C/C++ TBAA"}
!9 = !{!"int", !7, i64 0}
!10 = !{!4, !5, i64 0}
!11 = distinct !{!11, !12}
!12 = !{!"llvm.loop.mustprogress"}
!13 = !{!14, !15, i64 0}
!14 = !{!"hwloc_info_s", !15, i64 0, !15, i64 8}
!15 = !{!"p1 omnipotent char", !6, i64 0}
!16 = !{!14, !15, i64 8}
!17 = !{!7, !7, i64 0}
!18 = !{!15, !15, i64 0}
